target datalayout = "e-m:e-p270:32:32-p271:32:32-p272:64:64-i64:64-i128:128-f80:128-n8:16:32:64-S128"
target triple = "x86_64-pc-linux-gnu"

@.str = private unnamed_addr constant [31 x i8] c"../openssl/crypto/ui/ui_util.c\00", align 1

; Function Attrs: nounwind uwtable
define internal i32 @ui_dup_method_data(ptr noundef %0, ptr noundef %1, ptr noundef %2, i32 noundef %3, i64 noundef %4, ptr noundef %5) #0 {
  %7 = alloca i32, align 4
  %8 = alloca ptr, align 8
  %9 = alloca ptr, align 8
  %10 = alloca ptr, align 8
  %11 = alloca i32, align 4
  %12 = alloca i64, align 8
  %13 = alloca ptr, align 8
  store ptr %0, ptr %8, align 8, !tbaa !23
  store ptr %1, ptr %9, align 8, !tbaa !23
  store ptr %2, ptr %10, align 8, !tbaa !12
  store i32 %3, ptr %11, align 4, !tbaa !8
  store i64 %4, ptr %12, align 8, !tbaa !25
  store ptr %5, ptr %13, align 8, !tbaa !12
  %14 = load ptr, ptr %10, align 8, !tbaa !12
  %15 = load ptr, ptr %14, align 8, !tbaa !12
  %16 = icmp ne ptr %15, null
  br i1 %16, label %17, label %27

17:                                               ; preds = %6
  %18 = load ptr, ptr %10, align 8, !tbaa !12
  %19 = load ptr, ptr %18, align 8, !tbaa !12
  %20 = call noalias ptr @CRYPTO_memdup(ptr noundef %19, i64 noundef 16, ptr noundef @.str, i32 noundef 75)
  %21 = load ptr, ptr %10, align 8, !tbaa !12
  store ptr %20, ptr %21, align 8, !tbaa !12
  %22 = load ptr, ptr %10, align 8, !tbaa !12
  %23 = load ptr, ptr %22, align 8, !tbaa !12
  %24 = icmp ne ptr %23, null
  br i1 %24, label %25, label %26

25:                                               ; preds = %17
  store i32 1, ptr %7, align 4
  br label %28

26:                                               ; preds = %17
  br label %27

27:                                               ; preds = %26, %6
  store i32 0, ptr %7, align 4
  br label %28

28:                                               ; preds = %27, %25
  %29 = load i32, ptr %7, align 4
  ret i32 %29
}