; Function Attrs: nounwind uwtable
define internal range(i32 0, 2) i32 @ui_dup_method_data(ptr readnone captures(none) %0, ptr readnone captures(none) %1, ptr noundef captures(none) %2, i32 %3, i64 %4, ptr readnone captures(none) %5) #0 {
  %7 = load ptr, ptr %2, align 8, !tbaa !12
  %.not = icmp eq ptr %7, null
  br i1 %.not, label %10, label %8

8:                                                ; preds = %6
  %9 = tail call noalias ptr @CRYPTO_memdup(ptr noundef nonnull %7, i64 noundef 16, ptr noundef nonnull @.str, i32 noundef 75) #5
  store ptr %9, ptr %2, align 8, !tbaa !12
  %.not5 = icmp eq ptr %9, null
  br i1 %.not5, label %10, label %11

10:                                               ; preds = %8, %6
  br label %11

11:                                               ; preds = %8, %10
  %.0 = phi i32 [ 0, %10 ], [ 1, %8 ]
  ret i32 %.0
}